target datalayout = "e-m:e-p270:32:32-p271:32:32-p272:64:64-i64:64-i128:128-f80:128-n8:16:32:64-S128"
target triple = "x86_64-pc-linux-gnu"

%struct._zval_struct = type { %union._zend_value, %union.anon, %union.anon.2 }
%union._zend_value = type { i64 }
%union.anon = type { i32 }
%union.anon.2 = type { i32 }
%struct._zend_array = type { %struct._zend_refcounted_h, %union.anon.8, i32, %union.anon.10, i32, i32, i32, i32, i64, ptr }
%struct._zend_refcounted_h = type { i32, %union.anon.6 }
%union.anon.6 = type { i32 }
%union.anon.8 = type { i32 }
%union.anon.10 = type { ptr }
%struct._php_core_globals = type { i64, i8, i8, i8, i8, i8, i8, i8, i8, ptr, ptr, i64, i64, i64, ptr, ptr, ptr, ptr, ptr, i8, ptr, ptr, ptr, ptr, i64, ptr, ptr, ptr, ptr, ptr, ptr, ptr, %struct._arg_separators, ptr, %struct._zend_array, i16, i8, i8, %struct._zend_llist, [6 x %struct._zval_struct], i8, i8, i8, i8, i8, ptr, ptr, i64, [8 x i8], i8, i8, i8, i8, i8, i8, i32, i32, ptr, ptr, ptr, ptr, i64, i64, ptr, i64, ptr, ptr, i8, i8, i8, i8, i8, i8, i64, ptr, i64, i64 }
%struct._arg_separators = type { ptr, ptr }
%struct._zend_llist = type { ptr, ptr, i64, i64, ptr, i8, ptr }
%struct._pdo_dbh_t = type { ptr, ptr, ptr, ptr, i32, ptr, i64, [6 x i8], i32, i32, i32, ptr, i64, i32, [2 x ptr], ptr, ptr, %struct._zval_struct, ptr, %struct._zval_struct, i32 }
%struct.pdo_sqlite_db_handle = type { ptr, %struct.pdo_sqlite_error_info, ptr, ptr }
%struct.pdo_sqlite_error_info = type { ptr, i32, i32, ptr }

@.str.11 = private unnamed_addr constant [34 x i8] c"open_basedir prohibits opening %s\00", align 1
@core_globals = external global %struct._php_core_globals, align 8
@.str.12 = private unnamed_addr constant [111 x i8] c"/home/dtcxzyw/WorkSpace/Projects/compilers/llvm-opt-benchmark/bench/php/php-src/ext/pdo_sqlite/sqlite_driver.c\00", align 1

; Function Attrs: nounwind uwtable
define internal i64 @pdo_attr_lval(ptr noundef %0, i32 noundef %1, i64 noundef %2) #0 {
  %4 = alloca ptr, align 8
  %5 = alloca ptr, align 8
  %6 = alloca i64, align 8
  %7 = alloca ptr, align 8
  %8 = alloca i32, align 4
  %9 = alloca i64, align 8
  %10 = alloca ptr, align 8
  store ptr %0, ptr %7, align 8
  store i32 %1, ptr %8, align 4
  store i64 %2, ptr %9, align 8
  %11 = load ptr, ptr %7, align 8
  %12 = icmp ne ptr %11, null
  br i1 %12, label %13, label %37

13:                                               ; preds = %3
  %14 = load ptr, ptr %7, align 8
  %15 = getelementptr inbounds %struct._zval_struct, ptr %14, i32 0, i32 0
  %16 = load ptr, ptr %15, align 8
  %17 = load i32, ptr %8, align 4
  %18 = zext i32 %17 to i64
  %19 = call ptr @zend_hash_index_find(ptr noundef %16, i64 noundef %18)
  store ptr %19, ptr %10, align 8
  %20 = icmp ne ptr %19, null
  br i1 %20, label %21, label %37

21:                                               ; preds = %13
  %22 = load ptr, ptr %10, align 8
  store ptr %22, ptr %5, align 8
  %23 = load ptr, ptr %5, align 8
  store ptr %23, ptr %4, align 8
  %24 = load ptr, ptr %4, align 8
  %25 = getelementptr inbounds %struct._zval_struct, ptr %24, i32 0, i32 1
  %26 = load i8, ptr %25, align 8
  %27 = zext i8 %26 to i32
  %28 = icmp eq i32 %27, 4
  br i1 %28, label %29, label %32

29:                                               ; preds = %21
  %30 = load ptr, ptr %5, align 8
  %31 = load i64, ptr %30, align 8
  br label %35

32:                                               ; preds = %21
  %33 = load ptr, ptr %5, align 8
  %34 = call i64 @zval_get_long_func(ptr noundef %33, i1 noundef zeroext false) #9
  br label %35

35:                                               ; preds = %32, %29
  %36 = phi i64 [ %31, %29 ], [ %34, %32 ]
  store i64 %36, ptr %6, align 8
  br label %39

37:                                               ; preds = %13, %3
  %38 = load i64, ptr %9, align 8
  store i64 %38, ptr %6, align 8
  br label %39

39:                                               ; preds = %37, %35
  %40 = load i64, ptr %6, align 8
  ret i64 %40
}

; Function Attrs: nounwind uwtable
define internal i32 @pdo_sqlite_handle_factory(ptr noundef %0, ptr noundef %1) #0 {
  %3 = alloca ptr, align 8
  %4 = alloca ptr, align 8
  %5 = alloca ptr, align 8
  %6 = alloca i32, align 4
  %7 = alloca i32, align 4
  %8 = alloca i64, align 8
  %9 = alloca i64, align 8
  %10 = alloca ptr, align 8
  store ptr %0, ptr %3, align 8
  store ptr %1, ptr %4, align 8
  store i32 0, ptr %7, align 4
  store i64 60, ptr %8, align 8
  %11 = load ptr, ptr %3, align 8
  %12 = getelementptr inbounds %struct._pdo_dbh_t, ptr %11, i32 0, i32 4
  %13 = load i32, ptr %12, align 8
  %14 = and i32 %13, 1
  %15 = icmp ne i32 %14, 0
  br i1 %15, label %16, label %18

16:                                               ; preds = %2
  %17 = call noalias ptr @__zend_calloc(i64 noundef 1, i64 noundef 48) #10
  br label %20

18:                                               ; preds = %2
  %19 = call noalias ptr @_ecalloc(i64 noundef 1, i64 noundef 48) #10
  br label %20

20:                                               ; preds = %18, %16
  %21 = phi ptr [ %17, %16 ], [ %19, %18 ]
  store ptr %21, ptr %5, align 8
  %22 = load ptr, ptr %5, align 8
  %23 = getelementptr inbounds %struct.pdo_sqlite_db_handle, ptr %22, i32 0, i32 1
  %24 = getelementptr inbounds %struct.pdo_sqlite_error_info, ptr %23, i32 0, i32 2
  store i32 0, ptr %24, align 4
  %25 = load ptr, ptr %5, align 8
  %26 = getelementptr inbounds %struct.pdo_sqlite_db_handle, ptr %25, i32 0, i32 1
  %27 = getelementptr inbounds %struct.pdo_sqlite_error_info, ptr %26, i32 0, i32 3
  store ptr null, ptr %27, align 8
  %28 = load ptr, ptr %5, align 8
  %29 = load ptr, ptr %3, align 8
  %30 = getelementptr inbounds %struct._pdo_dbh_t, ptr %29, i32 0, i32 1
  store ptr %28, ptr %30, align 8
  %31 = load ptr, ptr %3, align 8
  %32 = getelementptr inbounds %struct._pdo_dbh_t, ptr %31, i32 0, i32 4
  %33 = load i32, ptr %32, align 8
  %34 = and i32 %33, -260097
  %35 = or i32 %34, 251904
  store i32 %35, ptr %32, align 8
  %36 = load ptr, ptr %3, align 8
  %37 = getelementptr inbounds %struct._pdo_dbh_t, ptr %36, i32 0, i32 5
  %38 = load ptr, ptr %37, align 8
  %39 = call ptr @make_filename_safe(ptr noundef %38)
  store ptr %39, ptr %10, align 8
  %40 = load ptr, ptr %10, align 8
  %41 = icmp ne ptr %40, null
  br i1 %41, label %48, label %42

42:                                               ; preds = %20
  %43 = call ptr @php_pdo_get_exception()
  %44 = load ptr, ptr %3, align 8
  %45 = getelementptr inbounds %struct._pdo_dbh_t, ptr %44, i32 0, i32 5
  %46 = load ptr, ptr %45, align 8
  %47 = call ptr (ptr, i64, ptr, ...) @zend_throw_exception_ex(ptr noundef %43, i64 noundef 0, ptr noundef @.str.11, ptr noundef %46)
  br label %112

48:                                               ; preds = %20
  %49 = load ptr, ptr %4, align 8
  %50 = call i64 @pdo_attr_lval(ptr noundef %49, i32 noundef 1000, i64 noundef 6)
  store i64 %50, ptr %9, align 8
  %51 = load ptr, ptr getelementptr inbounds (%struct._php_core_globals, ptr @core_globals, i32 0, i32 18), align 8
  %52 = icmp ne ptr %51, null
  br i1 %52, label %53, label %58

53:                                               ; preds = %48
  %54 = load ptr, ptr getelementptr inbounds (%struct._php_core_globals, ptr @core_globals, i32 0, i32 18), align 8
  %55 = load i8, ptr %54, align 1
  %56 = sext i8 %55 to i32
  %57 = icmp ne i32 %56, 0
  br i1 %57, label %61, label %58

58:                                               ; preds = %53, %48
  %59 = load i64, ptr %9, align 8
  %60 = or i64 %59, 64
  store i64 %60, ptr %9, align 8
  br label %61

61:                                               ; preds = %58, %53
  %62 = load ptr, ptr %10, align 8
  %63 = load ptr, ptr %5, align 8
  %64 = getelementptr inbounds %struct.pdo_sqlite_db_handle, ptr %63, i32 0, i32 0
  %65 = load i64, ptr %9, align 8
  %66 = trunc i64 %65 to i32
  %67 = call i32 @sqlite3_open_v2(ptr noundef %62, ptr noundef %64, i32 noundef %66, ptr noundef null)
  store i32 %67, ptr %6, align 4
  %68 = load ptr, ptr %10, align 8
  call void @_efree(ptr noundef %68)
  %69 = load i32, ptr %6, align 4
  %70 = icmp ne i32 %69, 0
  br i1 %70, label %71, label %74

71:                                               ; preds = %61
  %72 = load ptr, ptr %3, align 8
  %73 = call i32 @_pdo_sqlite_error(ptr noundef %72, ptr noundef null, ptr noundef @.str.12, i32 noundef 824)
  br label %112

74:                                               ; preds = %61
  %75 = load ptr, ptr getelementptr inbounds (%struct._php_core_globals, ptr @core_globals, i32 0, i32 18), align 8
  %76 = icmp ne ptr %75, null
  br i1 %76, label %77, label %87

77:                                               ; preds = %74
  %78 = load ptr, ptr getelementptr inbounds (%struct._php_core_globals, ptr @core_globals, i32 0, i32 18), align 8
  %79 = load i8, ptr %78, align 1
  %80 = sext i8 %79 to i32
  %81 = icmp ne i32 %80, 0
  br i1 %81, label %82, label %87

82:                                               ; preds = %77
  %83 = load ptr, ptr %5, align 8
  %84 = getelementptr inbounds %struct.pdo_sqlite_db_handle, ptr %83, i32 0, i32 0
  %85 = load ptr, ptr %84, align 8
  %86 = call i32 @sqlite3_set_authorizer(ptr noundef %85, ptr noundef @authorizer, ptr noundef null)
  br label %87

87:                                               ; preds = %82, %77, %74
  %88 = load ptr, ptr %4, align 8
  %89 = icmp ne ptr %88, null
  br i1 %89, label %90, label %94

90:                                               ; preds = %87
  %91 = load ptr, ptr %4, align 8
  %92 = load i64, ptr %8, align 8
  %93 = call i64 @pdo_attr_lval(ptr noundef %91, i32 noundef 2, i64 noundef %92)
  store i64 %93, ptr %8, align 8
  br label %94

94:                                               ; preds = %90, %87
  %95 = load ptr, ptr %5, align 8
  %96 = getelementptr inbounds %struct.pdo_sqlite_db_handle, ptr %95, i32 0, i32 0
  %97 = load ptr, ptr %96, align 8
  %98 = load i64, ptr %8, align 8
  %99 = mul nsw i64 %98, 1000
  %100 = trunc i64 %99 to i32
  %101 = call i32 @sqlite3_busy_timeout(ptr noundef %97, i32 noundef %100)
  %102 = load ptr, ptr %3, align 8
  %103 = getelementptr inbounds %struct._pdo_dbh_t, ptr %102, i32 0, i32 4
  %104 = load i32, ptr %103, align 8
  %105 = and i32 %104, -9
  %106 = or i32 %105, 8
  store i32 %106, ptr %103, align 8
  %107 = load ptr, ptr %3, align 8
  %108 = getelementptr inbounds %struct._pdo_dbh_t, ptr %107, i32 0, i32 4
  %109 = load i32, ptr %108, align 8
  %110 = and i32 %109, -225
  %111 = or i32 %110, 64
  store i32 %111, ptr %108, align 8
  store i32 1, ptr %7, align 4
  br label %112

112:                                              ; preds = %94, %71, %42
  %113 = load ptr, ptr %3, align 8
  %114 = getelementptr inbounds %struct._pdo_dbh_t, ptr %113, i32 0, i32 0
  store ptr @sqlite_methods, ptr %114, align 8
  %115 = load i32, ptr %7, align 4
  ret i32 %115
}