; Function Attrs: nounwind uwtable
define internal noundef i32 @pdo_sqlite_handle_factory(ptr noundef %0, ptr noundef readonly %1) #0 {
  %3 = getelementptr inbounds i8, ptr %0, i64 32
  %4 = load i32, ptr %3, align 8
  %5 = and i32 %4, 1
  %.not = icmp eq i32 %5, 0
  br i1 %.not, label %8, label %6

6:                                                ; preds = %2
  %7 = tail call noalias dereferenceable_or_null(48) ptr @__zend_calloc(i64 noundef 1, i64 noundef 48) #12
  br label %10

8:                                                ; preds = %2
  %9 = tail call noalias dereferenceable_or_null(48) ptr @_ecalloc(i64 noundef 1, i64 noundef 48) #12
  br label %10

10:                                               ; preds = %8, %6
  %11 = phi ptr [ %7, %6 ], [ %9, %8 ]
  %12 = getelementptr inbounds i8, ptr %11, i64 20
  store i32 0, ptr %12, align 4
  %13 = getelementptr inbounds i8, ptr %11, i64 24
  store ptr null, ptr %13, align 8
  %14 = getelementptr inbounds i8, ptr %0, i64 8
  store ptr %11, ptr %14, align 8
  %15 = load i32, ptr %3, align 8
  %16 = and i32 %15, -260097
  %17 = or disjoint i32 %16, 251904
  store i32 %17, ptr %3, align 8
  %18 = getelementptr inbounds i8, ptr %0, i64 40
  %19 = load ptr, ptr %18, align 8
  %20 = tail call fastcc ptr @make_filename_safe(ptr noundef %19)
  %.not32 = icmp eq ptr %20, null
  br i1 %.not32, label %21, label %25

21:                                               ; preds = %10
  %22 = tail call ptr @php_pdo_get_exception() #11
  %23 = load ptr, ptr %18, align 8
  %24 = tail call ptr (ptr, i64, ptr, ...) @zend_throw_exception_ex(ptr noundef %22, i64 noundef 0, ptr noundef nonnull @.str.11, ptr noundef %23) #11
  br label %74

25:                                               ; preds = %10
  %.not.i = icmp eq ptr %1, null
  br i1 %.not.i, label %pdo_attr_lval.exit, label %26

26:                                               ; preds = %25
  %27 = load ptr, ptr %1, align 8
  %28 = tail call ptr @zend_hash_index_find(ptr noundef %27, i64 noundef 1000) #11
  %.not11.i = icmp eq ptr %28, null
  br i1 %.not11.i, label %pdo_attr_lval.exit, label %29

29:                                               ; preds = %26
  %30 = getelementptr inbounds i8, ptr %28, i64 8
  %31 = load i8, ptr %30, align 8
  %32 = icmp eq i8 %31, 4
  br i1 %32, label %33, label %35

33:                                               ; preds = %29
  %34 = load i64, ptr %28, align 8
  br label %pdo_attr_lval.exit

35:                                               ; preds = %29
  %36 = tail call i64 @zval_get_long_func(ptr noundef nonnull %28, i1 noundef zeroext false) #11
  br label %pdo_attr_lval.exit

pdo_attr_lval.exit:                               ; preds = %25, %26, %33, %35
  %.0.i = phi i64 [ %34, %33 ], [ %36, %35 ], [ 6, %26 ], [ 6, %25 ]
  %37 = load ptr, ptr getelementptr inbounds (%struct._php_core_globals, ptr @core_globals, i64 0, i32 18), align 8
  %.not33 = icmp eq ptr %37, null
  br i1 %.not33, label %40, label %38

38:                                               ; preds = %pdo_attr_lval.exit
  %39 = load i8, ptr %37, align 1
  %.not34 = icmp eq i8 %39, 0
  br i1 %.not34, label %40, label %42

40:                                               ; preds = %38, %pdo_attr_lval.exit
  %41 = or i64 %.0.i, 64
  br label %42

42:                                               ; preds = %40, %38
  %.026 = phi i64 [ %.0.i, %38 ], [ %41, %40 ]
  %43 = trunc i64 %.026 to i32
  %44 = tail call i32 @sqlite3_open_v2(ptr noundef nonnull %20, ptr noundef nonnull %11, i32 noundef %43, ptr noundef null) #11
  tail call void @_efree(ptr noundef nonnull %20) #11
  %.not35 = icmp eq i32 %44, 0
  br i1 %.not35, label %47, label %45

45:                                               ; preds = %42
  %46 = tail call i32 @_pdo_sqlite_error(ptr noundef nonnull %0, ptr noundef null, ptr noundef nonnull @.str.12, i32 noundef 824)
  br label %74

47:                                               ; preds = %42
  %48 = load ptr, ptr getelementptr inbounds (%struct._php_core_globals, ptr @core_globals, i64 0, i32 18), align 8
  %.not36 = icmp eq ptr %48, null
  br i1 %.not36, label %54, label %49

49:                                               ; preds = %47
  %50 = load i8, ptr %48, align 1
  %.not37 = icmp eq i8 %50, 0
  br i1 %.not37, label %54, label %51

51:                                               ; preds = %49
  %52 = load ptr, ptr %11, align 8
  %53 = tail call i32 @sqlite3_set_authorizer(ptr noundef %52, ptr noundef nonnull @authorizer, ptr noundef null) #11
  br label %54

54:                                               ; preds = %51, %49, %47
  br i1 %.not.i, label %68, label %55

55:                                               ; preds = %54
  %56 = load ptr, ptr %1, align 8
  %57 = tail call ptr @zend_hash_index_find(ptr noundef %56, i64 noundef 2) #11
  %.not11.i40 = icmp eq ptr %57, null
  br i1 %.not11.i40, label %pdo_attr_lval.exit42, label %58

58:                                               ; preds = %55
  %59 = getelementptr inbounds i8, ptr %57, i64 8
  %60 = load i8, ptr %59, align 8
  %61 = icmp eq i8 %60, 4
  br i1 %61, label %62, label %64

62:                                               ; preds = %58
  %63 = load i64, ptr %57, align 8
  br label %pdo_attr_lval.exit42

64:                                               ; preds = %58
  %65 = tail call i64 @zval_get_long_func(ptr noundef nonnull %57, i1 noundef zeroext false) #11
  br label %pdo_attr_lval.exit42

pdo_attr_lval.exit42:                             ; preds = %55, %62, %64
  %.0.i41 = phi i64 [ %63, %62 ], [ %65, %64 ], [ 60, %55 ]
  %66 = trunc i64 %.0.i41 to i32
  %67 = mul i32 %66, 1000
  br label %68

68:                                               ; preds = %pdo_attr_lval.exit42, %54
  %.027 = phi i32 [ %67, %pdo_attr_lval.exit42 ], [ 60000, %54 ]
  %69 = load ptr, ptr %11, align 8
  %70 = tail call i32 @sqlite3_busy_timeout(ptr noundef %69, i32 noundef %.027) #11
  %71 = load i32, ptr %3, align 8
  %72 = and i32 %71, -233
  %73 = or disjoint i32 %72, 72
  store i32 %73, ptr %3, align 8
  br label %74

74:                                               ; preds = %68, %45, %21
  %.0 = phi i32 [ 0, %45 ], [ 1, %68 ], [ 0, %21 ]
  store ptr @sqlite_methods, ptr %0, align 8
  ret i32 %.0
}